; Function Attrs: nounwind uwtable
define ptr @l_Lean_mkConstWithLevelParams___rarg(ptr noundef %0, ptr noundef %1, ptr noundef %2, ptr noundef %3) #0 {
  %5 = getelementptr inbounds nuw i8, ptr %0, i64 16
  %6 = load ptr, ptr %5, align 8, !tbaa !10
  %7 = ptrtoint ptr %6 to i64
  %8 = and i64 %7, 1
  %.not = icmp eq i64 %8, 0
  br i1 %.not, label %9, label %lean_inc.exit17

9:                                                ; preds = %4
  %.val.i = load i32, ptr %6, align 4, !tbaa !4
  %10 = icmp sgt i32 %.val.i, 0
  br i1 %10, label %11, label %13, !prof !9

11:                                               ; preds = %9
  %12 = add nuw i32 %.val.i, 1
  store i32 %12, ptr %6, align 4, !tbaa !4
  br label %lean_inc.exit17

13:                                               ; preds = %9
  %.not.i = icmp eq i32 %.val.i, 0
  br i1 %.not.i, label %lean_inc.exit17, label %14

14:                                               ; preds = %13
  tail call void @lean_inc_ref_cold(ptr noundef nonnull %6) #4
  br label %lean_inc.exit17

lean_inc.exit17:                                  ; preds = %14, %13, %11, %4
  %15 = ptrtoint ptr %3 to i64
  %16 = and i64 %15, 1
  %.not24 = icmp eq i64 %16, 0
  br i1 %.not24, label %17, label %lean_inc.exit16

17:                                               ; preds = %lean_inc.exit17
  %.val.i18 = load i32, ptr %3, align 4, !tbaa !4
  %18 = icmp sgt i32 %.val.i18, 0
  br i1 %18, label %19, label %21, !prof !9

19:                                               ; preds = %17
  %20 = add nuw i32 %.val.i18, 1
  store i32 %20, ptr %3, align 4, !tbaa !4
  br label %lean_inc.exit16

21:                                               ; preds = %17
  %.not.i19 = icmp eq i32 %.val.i18, 0
  br i1 %.not.i19, label %lean_inc.exit16, label %22

22:                                               ; preds = %21
  tail call void @lean_inc_ref_cold(ptr noundef nonnull %3) #4
  br label %lean_inc.exit16

lean_inc.exit16:                                  ; preds = %22, %21, %19, %lean_inc.exit17
  %23 = ptrtoint ptr %0 to i64
  %24 = and i64 %23, 1
  %.not25 = icmp eq i64 %24, 0
  br i1 %.not25, label %25, label %lean_inc.exit

25:                                               ; preds = %lean_inc.exit16
  %.val.i21 = load i32, ptr %0, align 4, !tbaa !4
  %26 = icmp sgt i32 %.val.i21, 0
  br i1 %26, label %27, label %29, !prof !9

27:                                               ; preds = %25
  %28 = add nuw i32 %.val.i21, 1
  store i32 %28, ptr %0, align 4, !tbaa !4
  br label %lean_inc.exit

29:                                               ; preds = %25
  %.not.i22 = icmp eq i32 %.val.i21, 0
  br i1 %.not.i22, label %lean_inc.exit, label %30

30:                                               ; preds = %29
  tail call void @lean_inc_ref_cold(ptr noundef nonnull %0) #4
  br label %lean_inc.exit

lean_inc.exit:                                    ; preds = %30, %29, %27, %lean_inc.exit16
  %31 = tail call ptr @l_Lean_getConstVal___rarg(ptr noundef nonnull %0, ptr noundef %1, ptr noundef %2, ptr noundef %3)
  tail call void @lean_inc_heartbeat() #4
  %32 = tail call noalias ptr @mi_malloc_small(i64 noundef 40) #4
  %33 = icmp eq ptr %32, null
  br i1 %33, label %34, label %lean_alloc_closure.exit

34:                                               ; preds = %lean_inc.exit
  tail call void @lean_internal_panic_out_of_memory() #5
  unreachable

lean_alloc_closure.exit:                          ; preds = %lean_inc.exit
  %35 = getelementptr inbounds nuw i8, ptr %32, i64 4
  store i32 1, ptr %32, align 4, !tbaa !4
  store i32 -184549336, ptr %35, align 4
  %36 = getelementptr inbounds nuw i8, ptr %32, i64 8
  store ptr @l_Lean_mkConstWithLevelParams___rarg___lambda__1, ptr %36, align 8, !tbaa !10
  %37 = getelementptr inbounds nuw i8, ptr %32, i64 16
  store i16 3, ptr %37, align 8, !tbaa !12
  %38 = getelementptr inbounds nuw i8, ptr %32, i64 18
  store i16 2, ptr %38, align 2, !tbaa !12
  %39 = getelementptr inbounds nuw i8, ptr %32, i64 24
  store ptr %0, ptr %39, align 8, !tbaa !10
  %40 = getelementptr inbounds nuw i8, ptr %32, i64 32
  store ptr %3, ptr %40, align 8, !tbaa !10
  %41 = tail call ptr @lean_apply_4(ptr noundef %6, ptr noundef nonnull inttoptr (i64 1 to ptr), ptr noundef nonnull inttoptr (i64 1 to ptr), ptr noundef %31, ptr noundef nonnull %32) #4
  ret ptr %41
}